target datalayout = "e-m:e-p270:32:32-p271:32:32-p272:64:64-i64:64-i128:128-f80:128-n8:16:32:64-S128"
target triple = "x86_64-pc-linux-gnu"

%"struct.vcpkg::Optional" = type { %"struct.vcpkg::details::OptionalStorage" }
%"struct.vcpkg::details::OptionalStorage" = type { %"struct.vcpkg::details::OptionalStorageDtor" }
%"struct.vcpkg::details::OptionalStorageDtor" = type { i8, %union.anon.1 }
%union.anon.1 = type { %"class.std::__cxx11::basic_string" }
%"class.std::__cxx11::basic_string" = type { %"struct.std::__cxx11::basic_string<char>::_Alloc_hider", i64, %union.anon.0 }
%"struct.std::__cxx11::basic_string<char>::_Alloc_hider" = type { ptr }
%union.anon.0 = type { i64, [8 x i8] }
%"struct.vcpkg::RegistryConfig" = type { %"struct.vcpkg::Optional", %"struct.vcpkg::Optional", %"struct.vcpkg::Optional", %"struct.vcpkg::Optional", %"struct.vcpkg::Optional.2", %"struct.vcpkg::Optional", %"struct.vcpkg::Optional", %"struct.vcpkg::Optional.6", %"struct.vcpkg::Optional.13" }
%"struct.vcpkg::Optional.2" = type { %"struct.vcpkg::details::OptionalStorage.3" }
%"struct.vcpkg::details::OptionalStorage.3" = type { %"struct.vcpkg::details::OptionalStorageDtor.4" }
%"struct.vcpkg::details::OptionalStorageDtor.4" = type { i8, %union.anon.5 }
%union.anon.5 = type { %"struct.vcpkg::Path" }
%"struct.vcpkg::Path" = type { %"class.std::__cxx11::basic_string" }
%"struct.vcpkg::Optional.6" = type { %"struct.vcpkg::details::OptionalStorage.7" }
%"struct.vcpkg::details::OptionalStorage.7" = type { %"struct.vcpkg::details::OptionalStorageDtor.8" }
%"struct.vcpkg::details::OptionalStorageDtor.8" = type { i8, %union.anon.9 }
%union.anon.9 = type { %"class.std::vector" }
%"class.std::vector" = type { %"struct.std::_Vector_base" }
%"struct.std::_Vector_base" = type { %"struct.std::_Vector_base<std::__cxx11::basic_string<char>, std::allocator<std::__cxx11::basic_string<char>>>::_Vector_impl" }
%"struct.std::_Vector_base<std::__cxx11::basic_string<char>, std::allocator<std::__cxx11::basic_string<char>>>::_Vector_impl" = type { %"struct.std::_Vector_base<std::__cxx11::basic_string<char>, std::allocator<std::__cxx11::basic_string<char>>>::_Vector_impl_data" }
%"struct.std::_Vector_base<std::__cxx11::basic_string<char>, std::allocator<std::__cxx11::basic_string<char>>>::_Vector_impl_data" = type { ptr, ptr, ptr }
%"struct.vcpkg::Optional.13" = type { %"struct.vcpkg::details::OptionalStorage.14" }
%"struct.vcpkg::details::OptionalStorage.14" = type { %"struct.vcpkg::details::OptionalStorageDtor.15" }
%"struct.vcpkg::details::OptionalStorageDtor.15" = type { i8, %union.anon.16 }
%union.anon.16 = type { %"class.std::vector.17" }
%"class.std::vector.17" = type { %"struct.std::_Vector_base.18" }
%"struct.std::_Vector_base.18" = type { %"struct.std::_Vector_base<vcpkg::PackagePatternDeclaration, std::allocator<vcpkg::PackagePatternDeclaration>>::_Vector_impl" }
%"struct.std::_Vector_base<vcpkg::PackagePatternDeclaration, std::allocator<vcpkg::PackagePatternDeclaration>>::_Vector_impl" = type { %"struct.std::_Vector_base<vcpkg::PackagePatternDeclaration, std::allocator<vcpkg::PackagePatternDeclaration>>::_Vector_impl_data" }
%"struct.std::_Vector_base<vcpkg::PackagePatternDeclaration, std::allocator<vcpkg::PackagePatternDeclaration>>::_Vector_impl_data" = type { ptr, ptr, ptr }
%"struct.vcpkg::Optional.33" = type { %"struct.vcpkg::details::OptionalStorage.34" }
%"struct.vcpkg::details::OptionalStorage.34" = type { %"struct.vcpkg::details::OptionalStorageDtor.35" }
%"struct.vcpkg::details::OptionalStorageDtor.35" = type { i8, %union.anon.36 }
%union.anon.36 = type { %"struct.vcpkg::RegistryConfig" }

; Function Attrs: mustprogress nounwind uwtable
define linkonce_odr dso_local void @_ZN5vcpkg7details19OptionalStorageDtorISt6vectorINS_25PackagePatternDeclarationESaIS3_EELb0EEC2Ev(ptr noundef nonnull align 8 dereferenceable(32) %0) unnamed_addr #1 comdat align 2 {
  %2 = alloca ptr, align 8
  store ptr %0, ptr %2, align 8, !tbaa !494
  %3 = load ptr, ptr %2, align 8
  %4 = getelementptr inbounds nuw %"struct.vcpkg::details::OptionalStorageDtor.15", ptr %3, i32 0, i32 0
  store i8 0, ptr %4, align 8, !tbaa !496
  %5 = getelementptr inbounds nuw %"struct.vcpkg::details::OptionalStorageDtor.15", ptr %3, i32 0, i32 1
  store i8 0, ptr %5, align 8, !tbaa !158
  ret void
}

; Function Attrs: mustprogress nounwind uwtable
define linkonce_odr dso_local void @_ZN5vcpkg7details19OptionalStorageDtorISt6vectorINSt7__cxx1112basic_stringIcSt11char_traitsIcESaIcEEESaIS8_EELb0EEC2Ev(ptr noundef nonnull align 8 dereferenceable(32) %0) unnamed_addr #1 comdat align 2 {
  %2 = alloca ptr, align 8
  store ptr %0, ptr %2, align 8, !tbaa !435
  %3 = load ptr, ptr %2, align 8
  %4 = getelementptr inbounds nuw %"struct.vcpkg::details::OptionalStorageDtor.8", ptr %3, i32 0, i32 0
  store i8 0, ptr %4, align 8, !tbaa !117
  %5 = getelementptr inbounds nuw %"struct.vcpkg::details::OptionalStorageDtor.8", ptr %3, i32 0, i32 1
  store i8 0, ptr %5, align 8, !tbaa !158
  ret void
}

; Function Attrs: mustprogress nounwind uwtable
define linkonce_odr dso_local void @_ZN5vcpkg7details19OptionalStorageDtorINS_4PathELb0EEC2Ev(ptr noundef nonnull align 8 dereferenceable(40) %0) unnamed_addr #1 comdat align 2 {
  %2 = alloca ptr, align 8
  store ptr %0, ptr %2, align 8, !tbaa !490
  %3 = load ptr, ptr %2, align 8
  %4 = getelementptr inbounds nuw %"struct.vcpkg::details::OptionalStorageDtor.4", ptr %3, i32 0, i32 0
  store i8 0, ptr %4, align 8, !tbaa !153
  %5 = getelementptr inbounds nuw %"struct.vcpkg::details::OptionalStorageDtor.4", ptr %3, i32 0, i32 1
  store i8 0, ptr %5, align 8, !tbaa !158
  ret void
}

; Function Attrs: mustprogress nounwind uwtable
define linkonce_odr dso_local void @_ZN5vcpkg7details19OptionalStorageDtorINSt7__cxx1112basic_stringIcSt11char_traitsIcESaIcEEELb0EEC2Ev(ptr noundef nonnull align 8 dereferenceable(40) %0) unnamed_addr #1 comdat align 2 {
  %2 = alloca ptr, align 8
  store ptr %0, ptr %2, align 8, !tbaa !40
  %3 = load ptr, ptr %2, align 8
  %4 = getelementptr inbounds nuw %"struct.vcpkg::details::OptionalStorageDtor", ptr %3, i32 0, i32 0
  store i8 0, ptr %4, align 8, !tbaa !42
  %5 = getelementptr inbounds nuw %"struct.vcpkg::details::OptionalStorageDtor", ptr %3, i32 0, i32 1
  store i8 0, ptr %5, align 8, !tbaa !158
  ret void
}

; Function Attrs: mustprogress nounwind uwtable
define linkonce_odr dso_local void @_ZN5vcpkg7details19OptionalStorageDtorINS_14RegistryConfigELb0EEC2IJS2_EEENS0_9EngageTagEDpOT_(ptr noundef nonnull align 8 dereferenceable(352) %0, ptr noundef nonnull align 8 dereferenceable(344) %1) unnamed_addr #1 comdat align 2 {
  %3 = alloca ptr, align 8
  %4 = alloca ptr, align 8
  store ptr %0, ptr %3, align 8, !tbaa !377
  store ptr %1, ptr %4, align 8, !tbaa !4
  %5 = load ptr, ptr %3, align 8
  %6 = getelementptr inbounds nuw %"struct.vcpkg::details::OptionalStorageDtor.35", ptr %5, i32 0, i32 0
  store i8 1, ptr %6, align 8, !tbaa !72
  %7 = getelementptr inbounds nuw %"struct.vcpkg::details::OptionalStorageDtor.35", ptr %5, i32 0, i32 1
  %8 = load ptr, ptr %4, align 8, !tbaa !4
  call void @_ZN5vcpkg14RegistryConfigC2EOS0_(ptr noundef nonnull align 8 dereferenceable(344) %7, ptr noundef nonnull align 8 dereferenceable(344) %8) #18
  ret void
}

; Function Attrs: mustprogress uwtable
define linkonce_odr dso_local void @_ZN5vcpkg7details15OptionalStorageISt6vectorINS_25PackagePatternDeclarationESaIS3_EELb1EEC2Ev(ptr noundef nonnull align 8 dereferenceable(32) %0) unnamed_addr #0 comdat align 2 {
  %2 = alloca ptr, align 8
  store ptr %0, ptr %2, align 8, !tbaa !492
  %3 = load ptr, ptr %2, align 8
  call void @_ZN5vcpkg7details19OptionalStorageDtorISt6vectorINS_25PackagePatternDeclarationESaIS3_EELb0EEC2Ev(ptr noundef nonnull align 8 dereferenceable(32) %3)
  ret void
}

; Function Attrs: mustprogress uwtable
define linkonce_odr dso_local void @_ZN5vcpkg7details15OptionalStorageISt6vectorINSt7__cxx1112basic_stringIcSt11char_traitsIcESaIcEEESaIS8_EELb1EEC2Ev(ptr noundef nonnull align 8 dereferenceable(32) %0) unnamed_addr #0 comdat align 2 {
  %2 = alloca ptr, align 8
  store ptr %0, ptr %2, align 8, !tbaa !115
  %3 = load ptr, ptr %2, align 8
  call void @_ZN5vcpkg7details19OptionalStorageDtorISt6vectorINSt7__cxx1112basic_stringIcSt11char_traitsIcESaIcEEESaIS8_EELb0EEC2Ev(ptr noundef nonnull align 8 dereferenceable(32) %3)
  ret void
}

; Function Attrs: mustprogress uwtable
define linkonce_odr dso_local void @_ZN5vcpkg7details15OptionalStorageINS_4PathELb1EEC2Ev(ptr noundef nonnull align 8 dereferenceable(40) %0) unnamed_addr #0 comdat align 2 {
  %2 = alloca ptr, align 8
  store ptr %0, ptr %2, align 8, !tbaa !151
  %3 = load ptr, ptr %2, align 8
  call void @_ZN5vcpkg7details19OptionalStorageDtorINS_4PathELb0EEC2Ev(ptr noundef nonnull align 8 dereferenceable(40) %3)
  ret void
}

; Function Attrs: noinline noreturn nounwind uwtable
define linkonce_odr hidden void @__clang_call_terminate(ptr noundef %0) #14 comdat {
  %2 = call ptr @__cxa_begin_catch(ptr %0) #18
  call void @_ZSt9terminatev() #19
  unreachable
}

; Function Attrs: mustprogress uwtable
define linkonce_odr dso_local void @_ZN5vcpkg7details15OptionalStorageINSt7__cxx1112basic_stringIcSt11char_traitsIcESaIcEEELb1EEC2Ev(ptr noundef nonnull align 8 dereferenceable(40) %0) unnamed_addr #0 comdat align 2 {
  %2 = alloca ptr, align 8
  store ptr %0, ptr %2, align 8, !tbaa !149
  %3 = load ptr, ptr %2, align 8
  call void @_ZN5vcpkg7details19OptionalStorageDtorINSt7__cxx1112basic_stringIcSt11char_traitsIcESaIcEEELb0EEC2Ev(ptr noundef nonnull align 8 dereferenceable(40) %3)
  ret void
}

; Function Attrs: mustprogress nounwind uwtable
define linkonce_odr dso_local void @_ZN5vcpkg7details15OptionalStorageINS_14RegistryConfigELb1EEC2EOS2_(ptr noundef nonnull align 8 dereferenceable(352) %0, ptr noundef nonnull align 8 dereferenceable(344) %1) unnamed_addr #1 comdat align 2 {
  %3 = alloca ptr, align 8
  %4 = alloca ptr, align 8
  store ptr %0, ptr %3, align 8, !tbaa !70
  store ptr %1, ptr %4, align 8, !tbaa !4
  %5 = load ptr, ptr %3, align 8
  %6 = load ptr, ptr %4, align 8, !tbaa !4
  call void @_ZN5vcpkg7details19OptionalStorageDtorINS_14RegistryConfigELb0EEC2IJS2_EEENS0_9EngageTagEDpOT_(ptr noundef nonnull align 8 dereferenceable(352) %5, ptr noundef nonnull align 8 dereferenceable(344) %6) #18
  ret void
}

; Function Attrs: mustprogress nounwind uwtable
define linkonce_odr dso_local void @_ZN5vcpkg8OptionalISt6vectorINS_25PackagePatternDeclarationESaIS2_EEEC2Ev(ptr noundef nonnull align 8 dereferenceable(32) %0) unnamed_addr #1 comdat align 2 personality ptr @__gxx_personality_v0 {
  %2 = alloca ptr, align 8
  store ptr %0, ptr %2, align 8, !tbaa !488
  %3 = load ptr, ptr %2, align 8
  invoke void @_ZN5vcpkg7details15OptionalStorageISt6vectorINS_25PackagePatternDeclarationESaIS3_EELb1EEC2Ev(ptr noundef nonnull align 8 dereferenceable(32) %3)
          to label %4 unwind label %5

4:                                                ; preds = %1
  ret void

5:                                                ; preds = %1
  %6 = landingpad { ptr, i32 }
          catch ptr null
  %7 = extractvalue { ptr, i32 } %6, 0
  call void @__clang_call_terminate(ptr %7) #19
  unreachable
}

; Function Attrs: mustprogress nounwind uwtable
define linkonce_odr dso_local void @_ZN5vcpkg8OptionalISt6vectorINSt7__cxx1112basic_stringIcSt11char_traitsIcESaIcEEESaIS7_EEEC2Ev(ptr noundef nonnull align 8 dereferenceable(32) %0) unnamed_addr #1 comdat align 2 personality ptr @__gxx_personality_v0 {
  %2 = alloca ptr, align 8
  store ptr %0, ptr %2, align 8, !tbaa !155
  %3 = load ptr, ptr %2, align 8
  invoke void @_ZN5vcpkg7details15OptionalStorageISt6vectorINSt7__cxx1112basic_stringIcSt11char_traitsIcESaIcEEESaIS8_EELb1EEC2Ev(ptr noundef nonnull align 8 dereferenceable(32) %3)
          to label %4 unwind label %5

4:                                                ; preds = %1
  ret void

5:                                                ; preds = %1
  %6 = landingpad { ptr, i32 }
          catch ptr null
  %7 = extractvalue { ptr, i32 } %6, 0
  call void @__clang_call_terminate(ptr %7) #19
  unreachable
}

; Function Attrs: mustprogress nounwind uwtable
define linkonce_odr dso_local void @_ZN5vcpkg8OptionalINS_4PathEEC2Ev(ptr noundef nonnull align 8 dereferenceable(40) %0) unnamed_addr #1 comdat align 2 personality ptr @__gxx_personality_v0 {
  %2 = alloca ptr, align 8
  store ptr %0, ptr %2, align 8, !tbaa !52
  %3 = load ptr, ptr %2, align 8
  invoke void @_ZN5vcpkg7details15OptionalStorageINS_4PathELb1EEC2Ev(ptr noundef nonnull align 8 dereferenceable(40) %3)
          to label %4 unwind label %5

4:                                                ; preds = %1
  ret void

5:                                                ; preds = %1
  %6 = landingpad { ptr, i32 }
          catch ptr null
  %7 = extractvalue { ptr, i32 } %6, 0
  call void @__clang_call_terminate(ptr %7) #19
  unreachable
}

; Function Attrs: mustprogress nounwind uwtable
define linkonce_odr dso_local void @_ZN5vcpkg8OptionalINSt7__cxx1112basic_stringIcSt11char_traitsIcESaIcEEEEC2Ev(ptr noundef nonnull align 8 dereferenceable(40) %0) unnamed_addr #1 comdat align 2 personality ptr @__gxx_personality_v0 {
  %2 = alloca ptr, align 8
  store ptr %0, ptr %2, align 8, !tbaa !23
  %3 = load ptr, ptr %2, align 8
  invoke void @_ZN5vcpkg7details15OptionalStorageINSt7__cxx1112basic_stringIcSt11char_traitsIcESaIcEEELb1EEC2Ev(ptr noundef nonnull align 8 dereferenceable(40) %3)
          to label %4 unwind label %5

4:                                                ; preds = %1
  ret void

5:                                                ; preds = %1
  %6 = landingpad { ptr, i32 }
          catch ptr null
  %7 = extractvalue { ptr, i32 } %6, 0
  call void @__clang_call_terminate(ptr %7) #19
  unreachable
}

; Function Attrs: mustprogress nounwind uwtable
define linkonce_odr dso_local void @_ZN5vcpkg8OptionalINS_14RegistryConfigEEC2IS1_TnNSt9enable_ifIXaantsr3stdE9is_same_vINSt5decayIT_E4typeES2_Esr3stdE18is_constructible_vINS_7details15OptionalStorageIS1_Lb1EEES6_EEiE4typeELi0EEEOS6_(ptr noundef nonnull align 8 dereferenceable(352) %0, ptr noundef nonnull align 8 dereferenceable(344) %1) unnamed_addr #1 comdat align 2 {
  %3 = alloca ptr, align 8
  %4 = alloca ptr, align 8
  store ptr %0, ptr %3, align 8, !tbaa !130
  store ptr %1, ptr %4, align 8, !tbaa !4
  %5 = load ptr, ptr %3, align 8
  %6 = load ptr, ptr %4, align 8, !tbaa !4
  call void @_ZN5vcpkg7details15OptionalStorageINS_14RegistryConfigELb1EEC2EOS2_(ptr noundef nonnull align 8 dereferenceable(352) %5, ptr noundef nonnull align 8 dereferenceable(344) %6) #18
  ret void
}

; Function Attrs: inlinehint mustprogress nounwind uwtable
define linkonce_odr dso_local void @_ZN5vcpkg14RegistryConfigC2Ev(ptr noundef nonnull align 8 dereferenceable(344) %0) unnamed_addr #6 comdat align 2 {
  %2 = alloca ptr, align 8
  store ptr %0, ptr %2, align 8, !tbaa !4
  %3 = load ptr, ptr %2, align 8
  %4 = getelementptr inbounds nuw %"struct.vcpkg::RegistryConfig", ptr %3, i32 0, i32 0
  call void @_ZN5vcpkg8OptionalINSt7__cxx1112basic_stringIcSt11char_traitsIcESaIcEEEEC2Ev(ptr noundef nonnull align 8 dereferenceable(40) %4) #18
  %5 = getelementptr inbounds nuw %"struct.vcpkg::RegistryConfig", ptr %3, i32 0, i32 1
  call void @_ZN5vcpkg8OptionalINSt7__cxx1112basic_stringIcSt11char_traitsIcESaIcEEEEC2Ev(ptr noundef nonnull align 8 dereferenceable(40) %5) #18
  %6 = getelementptr inbounds nuw %"struct.vcpkg::RegistryConfig", ptr %3, i32 0, i32 2
  call void @_ZN5vcpkg8OptionalINSt7__cxx1112basic_stringIcSt11char_traitsIcESaIcEEEEC2Ev(ptr noundef nonnull align 8 dereferenceable(40) %6) #18
  %7 = getelementptr inbounds nuw %"struct.vcpkg::RegistryConfig", ptr %3, i32 0, i32 3
  call void @_ZN5vcpkg8OptionalINSt7__cxx1112basic_stringIcSt11char_traitsIcESaIcEEEEC2Ev(ptr noundef nonnull align 8 dereferenceable(40) %7) #18
  %8 = getelementptr inbounds nuw %"struct.vcpkg::RegistryConfig", ptr %3, i32 0, i32 4
  call void @_ZN5vcpkg8OptionalINS_4PathEEC2Ev(ptr noundef nonnull align 8 dereferenceable(40) %8) #18
  %9 = getelementptr inbounds nuw %"struct.vcpkg::RegistryConfig", ptr %3, i32 0, i32 5
  call void @_ZN5vcpkg8OptionalINSt7__cxx1112basic_stringIcSt11char_traitsIcESaIcEEEEC2Ev(ptr noundef nonnull align 8 dereferenceable(40) %9) #18
  %10 = getelementptr inbounds nuw %"struct.vcpkg::RegistryConfig", ptr %3, i32 0, i32 6
  call void @_ZN5vcpkg8OptionalINSt7__cxx1112basic_stringIcSt11char_traitsIcESaIcEEEEC2Ev(ptr noundef nonnull align 8 dereferenceable(40) %10) #18
  %11 = getelementptr inbounds nuw %"struct.vcpkg::RegistryConfig", ptr %3, i32 0, i32 7
  call void @_ZN5vcpkg8OptionalISt6vectorINSt7__cxx1112basic_stringIcSt11char_traitsIcESaIcEEESaIS7_EEEC2Ev(ptr noundef nonnull align 8 dereferenceable(32) %11) #18
  %12 = getelementptr inbounds nuw %"struct.vcpkg::RegistryConfig", ptr %3, i32 0, i32 8
  call void @_ZN5vcpkg8OptionalISt6vectorINS_25PackagePatternDeclarationESaIS2_EEEC2Ev(ptr noundef nonnull align 8 dereferenceable(32) %12) #18
  ret void
}

; Function Attrs: mustprogress nounwind uwtable
define internal void @_ZNK12_GLOBAL__N_126RegistryConfigDeserializer10visit_nullERN5vcpkg4Json6ReaderE(ptr dead_on_unwind noalias writable sret(%"struct.vcpkg::Optional.33") align 8 %0, ptr noundef nonnull align 8 dereferenceable(8) %1, ptr noundef nonnull align 8 dereferenceable(120) %2) unnamed_addr #1 align 2 {
  %4 = alloca ptr, align 8
  %5 = alloca ptr, align 8
  %6 = alloca ptr, align 8
  %7 = alloca %"struct.vcpkg::RegistryConfig", align 8
  store ptr %0, ptr %4, align 8
  store ptr %1, ptr %5, align 8, !tbaa !513
  store ptr %2, ptr %6, align 8, !tbaa !95
  call void @llvm.lifetime.start.p0(i64 344, ptr %7) #18
  call void @llvm.memset.p0.i64(ptr align 8 %7, i8 0, i64 344, i1 false)
  call void @_ZN5vcpkg14RegistryConfigC2Ev(ptr noundef nonnull align 8 dereferenceable(344) %7) #18
  call void @_ZN5vcpkg8OptionalINS_14RegistryConfigEEC2IS1_TnNSt9enable_ifIXaantsr3stdE9is_same_vINSt5decayIT_E4typeES2_Esr3stdE18is_constructible_vINS_7details15OptionalStorageIS1_Lb1EEES6_EEiE4typeELi0EEEOS6_(ptr noundef nonnull align 8 dereferenceable(352) %0, ptr noundef nonnull align 8 dereferenceable(344) %7) #18
  call void @_ZN5vcpkg14RegistryConfigD2Ev(ptr noundef nonnull align 8 dereferenceable(344) %7) #18
  call void @llvm.lifetime.end.p0(i64 344, ptr %7) #18
  ret void
}