; Function Attrs: mustprogress nounwind uwtable
define internal void @_ZNK12_GLOBAL__N_126RegistryConfigDeserializer10visit_nullERN5vcpkg4Json6ReaderE(ptr dead_on_unwind noalias writable sret(%"struct.vcpkg::Optional.33") align 8 initializes((0, 1)) %0, ptr nonnull readnone align 8 captures(none) %1, ptr nonnull readnone align 8 captures(none) %2) unnamed_addr #5 align 2 personality ptr @__gxx_personality_v0 {
  %4 = alloca %"struct.vcpkg::RegistryConfig", align 8
  call void @llvm.lifetime.start.p0(i64 344, ptr nonnull %4) #22
  call void @llvm.memset.p0.i64(ptr noundef nonnull align 8 dereferenceable(344) %4, i8 0, i64 344, i1 false)
  store i8 1, ptr %0, align 8, !tbaa !82
  %5 = getelementptr inbounds nuw i8, ptr %0, i64 8
  call void @_ZN5vcpkg14RegistryConfigC2EOS0_(ptr noundef nonnull align 8 dereferenceable(344) %5, ptr noundef nonnull align 8 dereferenceable(344) %4) #22
  call void @_ZN5vcpkg14RegistryConfigD2Ev(ptr noundef nonnull align 8 dereferenceable(344) %4) #22
  call void @llvm.lifetime.end.p0(i64 344, ptr nonnull %4) #22
  ret void
}